; Function Attrs: mustprogress uwtable
define noundef i32 @_Z26grpc_ssl_host_matches_namePK8tsi_peerSt17basic_string_viewIcSt11char_traitsIcEE(ptr noundef %0, i64 %1, ptr %2) local_unnamed_addr #4 personality ptr @__gxx_personality_v0 {
  %4 = alloca %"class.std::basic_string_view", align 8
  %5 = alloca %"class.std::basic_string_view", align 8
  call void @llvm.lifetime.start.p0(i64 16, ptr nonnull %4) #30
  call void @llvm.memset.p0.i64(ptr noundef nonnull align 8 dereferenceable(16) %4, i8 0, i64 16, i1 false)
  call void @llvm.lifetime.start.p0(i64 16, ptr nonnull %5) #30
  call void @llvm.memset.p0.i64(ptr noundef nonnull align 8 dereferenceable(16) %5, i8 0, i64 16, i1 false)
  %6 = call noundef zeroext i1 @_ZN9grpc_core13SplitHostPortESt17basic_string_viewIcSt11char_traitsIcEEPS3_S4_(i64 %1, ptr %2, ptr noundef nonnull %4, ptr noundef nonnull %5)
  %7 = load i64, ptr %4, align 8, !tbaa !33
  %8 = icmp eq i64 %7, 0
  br i1 %8, label %18, label %_ZNKSt17basic_string_viewIcSt11char_traitsIcEE4findEcm.exit

_ZNKSt17basic_string_viewIcSt11char_traitsIcEE4findEcm.exit: ; preds = %3
  %9 = getelementptr inbounds nuw i8, ptr %4, i64 8
  %10 = load ptr, ptr %9, align 8, !tbaa !35
  %11 = call ptr @memchr(ptr noundef %10, i32 noundef 37, i64 noundef %7) #30
  %.not.i = icmp eq ptr %11, null
  %12 = ptrtoint ptr %11 to i64
  %13 = ptrtoint ptr %10 to i64
  %14 = sub i64 %12, %13
  %.not8 = icmp eq i64 %14, -1
  %.not = or i1 %.not.i, %.not8
  br i1 %.not, label %16, label %15

15:                                               ; preds = %_ZNKSt17basic_string_viewIcSt11char_traitsIcEE4findEcm.exit
  store i64 %14, ptr %4, align 8, !tbaa !33
  br label %16

16:                                               ; preds = %15, %_ZNKSt17basic_string_viewIcSt11char_traitsIcEE4findEcm.exit
  %.sroa.0.0.copyload = phi i64 [ %14, %15 ], [ %7, %_ZNKSt17basic_string_viewIcSt11char_traitsIcEE4findEcm.exit ]
  %17 = call noundef i32 @_Z25tsi_ssl_peer_matches_namePK8tsi_peerSt17basic_string_viewIcSt11char_traitsIcEE(ptr noundef %0, i64 %.sroa.0.0.copyload, ptr %10)
  br label %18

18:                                               ; preds = %3, %16
  %.0 = phi i32 [ %17, %16 ], [ 0, %3 ]
  call void @llvm.lifetime.end.p0(i64 16, ptr nonnull %5) #30
  call void @llvm.lifetime.end.p0(i64 16, ptr nonnull %4) #30
  ret i32 %.0
}